target datalayout = "e-m:e-p270:32:32-p271:32:32-p272:64:64-i64:64-i128:128-f80:128-n8:16:32:64-S128"
target triple = "x86_64-pc-linux-gnu"

@H5_libinit_g = external global i8, align 1
@H5_libterm_g = external global i8, align 1
@.str = private unnamed_addr constant [98 x i8] c"generated/home/dtcxzyw/WorkSpace/Projects/compilers/llvm-opt-benchmark/bench/hdf5/hdf5/src/H5PL.c\00", align 1
@H5E_FUNC_g = external global i64, align 8
@H5E_CANTINIT_g = external global i64, align 8
@.str.1 = private unnamed_addr constant [30 x i8] c"library initialization failed\00", align 1
@H5E_CANTSET_g = external global i64, align 8
@.str.2 = private unnamed_addr constant [22 x i8] c"can't set API context\00", align 1
@H5E_ARGS_g = external global i64, align 8
@H5E_BADVALUE_g = external global i64, align 8
@H5E_PLUGIN_g = external global i64, align 8
@H5E_BADRANGE_g = external global i64, align 8
@.str.10 = private unnamed_addr constant [20 x i8] c"path table is empty\00", align 1
@.str.11 = private unnamed_addr constant [59 x i8] c"index path out of bounds for table - can't be more than %u\00", align 1
@__func__.H5PLget = private unnamed_addr constant [8 x i8] c"H5PLget\00", align 1
@H5E_NOSPACE_g = external global i64, align 8
@.str.15 = private unnamed_addr constant [34 x i8] c"plugin search path table is empty\00", align 1
@.str.16 = private unnamed_addr constant [29 x i8] c"no path stored at that index\00", align 1

; Function Attrs: nounwind uwtable
define i64 @H5PLget(i32 noundef %0, ptr noundef %1, i64 noundef %2) #0 {
  %4 = alloca i32, align 4
  %5 = alloca ptr, align 8
  %6 = alloca i64, align 8
  %7 = alloca i32, align 4
  %8 = alloca ptr, align 8
  %9 = alloca i64, align 8
  %10 = alloca i64, align 8
  %11 = alloca i8, align 1
  %12 = alloca i8, align 1
  store i32 %0, ptr %4, align 4
  store ptr %1, ptr %5, align 8
  store i64 %2, ptr %6, align 8
  store ptr null, ptr %8, align 8
  store i64 0, ptr %9, align 8
  store i64 0, ptr %10, align 8
  store i8 0, ptr %11, align 1
  store i8 0, ptr %12, align 1
  %13 = load i8, ptr @H5_libinit_g, align 1
  %14 = trunc i8 %13 to i1
  br i1 %14, label %19, label %15

15:                                               ; preds = %3
  %16 = load i8, ptr @H5_libterm_g, align 1
  %17 = trunc i8 %16 to i1
  %18 = xor i1 %17, true
  br label %19

19:                                               ; preds = %15, %3
  %20 = phi i1 [ false, %3 ], [ %18, %15 ]
  %21 = xor i1 %20, true
  %22 = xor i1 %21, true
  %23 = zext i1 %22 to i32
  %24 = sext i32 %23 to i64
  %25 = icmp ne i64 %24, 0
  br i1 %25, label %26, label %50

26:                                               ; preds = %19
  %27 = call i32 @H5_init_library()
  %28 = icmp slt i32 %27, 0
  %29 = xor i1 %28, true
  %30 = xor i1 %29, true
  %31 = zext i1 %30 to i32
  %32 = sext i32 %31 to i64
  %33 = icmp ne i64 %32, 0
  br i1 %33, label %34, label %49

34:                                               ; preds = %26
  br label %35

35:                                               ; preds = %34
  br label %36

36:                                               ; preds = %35
  br label %37

37:                                               ; preds = %36
  %38 = load i64, ptr @H5E_FUNC_g, align 8
  %39 = load i64, ptr @H5E_CANTINIT_g, align 8
  %40 = call i32 (ptr, ptr, i32, i64, i64, ptr, ...) @H5E_printf_stack(ptr noundef @.str, ptr noundef @__func__.H5PLget, i32 noundef 333, i64 noundef %38, i64 noundef %39, ptr noundef @.str.1)
  br label %41

41:                                               ; preds = %37
  store i8 1, ptr %12, align 1
  %42 = load i8, ptr %12, align 1
  %43 = trunc i8 %42 to i1
  %44 = zext i1 %43 to i8
  store i8 %44, ptr %12, align 1
  br label %45

45:                                               ; preds = %41
  br label %46

46:                                               ; preds = %45
  store i64 -1, ptr %10, align 8
  br label %174

47:                                               ; No predecessors!
  br label %48

48:                                               ; preds = %47
  br label %49

49:                                               ; preds = %48, %26
  br label %50

50:                                               ; preds = %49, %19
  %51 = call i32 @H5CX_push()
  %52 = icmp slt i32 %51, 0
  %53 = xor i1 %52, true
  %54 = xor i1 %53, true
  %55 = zext i1 %54 to i32
  %56 = sext i32 %55 to i64
  %57 = icmp ne i64 %56, 0
  br i1 %57, label %58, label %73

58:                                               ; preds = %50
  br label %59

59:                                               ; preds = %58
  br label %60

60:                                               ; preds = %59
  br label %61

61:                                               ; preds = %60
  %62 = load i64, ptr @H5E_FUNC_g, align 8
  %63 = load i64, ptr @H5E_CANTSET_g, align 8
  %64 = call i32 (ptr, ptr, i32, i64, i64, ptr, ...) @H5E_printf_stack(ptr noundef @.str, ptr noundef @__func__.H5PLget, i32 noundef 333, i64 noundef %62, i64 noundef %63, ptr noundef @.str.2)
  br label %65

65:                                               ; preds = %61
  store i8 1, ptr %12, align 1
  %66 = load i8, ptr %12, align 1
  %67 = trunc i8 %66 to i1
  %68 = zext i1 %67 to i8
  store i8 %68, ptr %12, align 1
  br label %69

69:                                               ; preds = %65
  br label %70

70:                                               ; preds = %69
  store i64 -1, ptr %10, align 8
  br label %174

71:                                               ; No predecessors!
  br label %72

72:                                               ; preds = %71
  br label %74

73:                                               ; preds = %50
  store i8 1, ptr %11, align 1
  br label %74

74:                                               ; preds = %73, %72
  %75 = call i32 @H5E_clear_stack()
  %76 = call i32 @H5PL__get_num_paths()
  store i32 %76, ptr %7, align 4
  %77 = load i32, ptr %7, align 4
  %78 = icmp eq i32 0, %77
  br i1 %78, label %79, label %94

79:                                               ; preds = %74
  br label %80

80:                                               ; preds = %79
  br label %81

81:                                               ; preds = %80
  br label %82

82:                                               ; preds = %81
  %83 = load i64, ptr @H5E_ARGS_g, align 8
  %84 = load i64, ptr @H5E_BADRANGE_g, align 8
  %85 = call i32 (ptr, ptr, i32, i64, i64, ptr, ...) @H5E_printf_stack(ptr noundef @.str, ptr noundef @__func__.H5PLget, i32 noundef 338, i64 noundef %83, i64 noundef %84, ptr noundef @.str.10)
  br label %86

86:                                               ; preds = %82
  store i8 1, ptr %12, align 1
  %87 = load i8, ptr %12, align 1
  %88 = trunc i8 %87 to i1
  %89 = zext i1 %88 to i8
  store i8 %89, ptr %12, align 1
  br label %90

90:                                               ; preds = %86
  br label %91

91:                                               ; preds = %90
  store i64 -1, ptr %10, align 8
  br label %174

92:                                               ; No predecessors!
  br label %93

93:                                               ; preds = %92
  br label %116

94:                                               ; preds = %74
  %95 = load i32, ptr %4, align 4
  %96 = load i32, ptr %7, align 4
  %97 = icmp uge i32 %95, %96
  br i1 %97, label %98, label %115

98:                                               ; preds = %94
  br label %99

99:                                               ; preds = %98
  br label %100

100:                                              ; preds = %99
  br label %101

101:                                              ; preds = %100
  %102 = load i64, ptr @H5E_ARGS_g, align 8
  %103 = load i64, ptr @H5E_BADRANGE_g, align 8
  %104 = load i32, ptr %7, align 4
  %105 = sub i32 %104, 1
  %106 = call i32 (ptr, ptr, i32, i64, i64, ptr, ...) @H5E_printf_stack(ptr noundef @.str, ptr noundef @__func__.H5PLget, i32 noundef 341, i64 noundef %102, i64 noundef %103, ptr noundef @.str.11, i32 noundef %105)
  br label %107

107:                                              ; preds = %101
  store i8 1, ptr %12, align 1
  %108 = load i8, ptr %12, align 1
  %109 = trunc i8 %108 to i1
  %110 = zext i1 %109 to i8
  store i8 %110, ptr %12, align 1
  br label %111

111:                                              ; preds = %107
  br label %112

112:                                              ; preds = %111
  store i64 -1, ptr %10, align 8
  br label %174

113:                                              ; No predecessors!
  br label %114

114:                                              ; preds = %113
  br label %115

115:                                              ; preds = %114, %94
  br label %116

116:                                              ; preds = %115, %93
  %117 = call i32 @H5PL__get_num_paths()
  %118 = icmp eq i32 %117, 0
  br i1 %118, label %119, label %134

119:                                              ; preds = %116
  br label %120

120:                                              ; preds = %119
  br label %121

121:                                              ; preds = %120
  br label %122

122:                                              ; preds = %121
  %123 = load i64, ptr @H5E_PLUGIN_g, align 8
  %124 = load i64, ptr @H5E_NOSPACE_g, align 8
  %125 = call i32 (ptr, ptr, i32, i64, i64, ptr, ...) @H5E_printf_stack(ptr noundef @.str, ptr noundef @__func__.H5PLget, i32 noundef 345, i64 noundef %123, i64 noundef %124, ptr noundef @.str.15)
  br label %126

126:                                              ; preds = %122
  store i8 1, ptr %12, align 1
  %127 = load i8, ptr %12, align 1
  %128 = trunc i8 %127 to i1
  %129 = zext i1 %128 to i8
  store i8 %129, ptr %12, align 1
  br label %130

130:                                              ; preds = %126
  br label %131

131:                                              ; preds = %130
  store i64 -1, ptr %10, align 8
  br label %174

132:                                              ; No predecessors!
  br label %133

133:                                              ; preds = %132
  br label %134

134:                                              ; preds = %133, %116
  %135 = load i32, ptr %4, align 4
  %136 = call ptr @H5PL__get_path(i32 noundef %135)
  store ptr %136, ptr %8, align 8
  %137 = icmp eq ptr null, %136
  br i1 %137, label %138, label %153

138:                                              ; preds = %134
  br label %139

139:                                              ; preds = %138
  br label %140

140:                                              ; preds = %139
  br label %141

141:                                              ; preds = %140
  %142 = load i64, ptr @H5E_PLUGIN_g, align 8
  %143 = load i64, ptr @H5E_BADVALUE_g, align 8
  %144 = call i32 (ptr, ptr, i32, i64, i64, ptr, ...) @H5E_printf_stack(ptr noundef @.str, ptr noundef @__func__.H5PLget, i32 noundef 349, i64 noundef %142, i64 noundef %143, ptr noundef @.str.16)
  br label %145

145:                                              ; preds = %141
  store i8 1, ptr %12, align 1
  %146 = load i8, ptr %12, align 1
  %147 = trunc i8 %146 to i1
  %148 = zext i1 %147 to i8
  store i8 %148, ptr %12, align 1
  br label %149

149:                                              ; preds = %145
  br label %150

150:                                              ; preds = %149
  store i64 -1, ptr %10, align 8
  br label %174

151:                                              ; No predecessors!
  br label %152

152:                                              ; preds = %151
  br label %153

153:                                              ; preds = %152, %134
  %154 = load ptr, ptr %8, align 8
  %155 = call i64 @strlen(ptr noundef %154) #4
  store i64 %155, ptr %9, align 8
  %156 = load ptr, ptr %5, align 8
  %157 = icmp ne ptr %156, null
  br i1 %157, label %158, label %172

158:                                              ; preds = %153
  %159 = load ptr, ptr %5, align 8
  %160 = load ptr, ptr %8, align 8
  %161 = load i64, ptr %6, align 8
  %162 = call ptr @strncpy(ptr noundef %159, ptr noundef %160, i64 noundef %161) #5
  %163 = load i64, ptr %9, align 8
  %164 = load i64, ptr %6, align 8
  %165 = icmp uge i64 %163, %164
  br i1 %165, label %166, label %171

166:                                              ; preds = %158
  %167 = load ptr, ptr %5, align 8
  %168 = load i64, ptr %6, align 8
  %169 = sub i64 %168, 1
  %170 = getelementptr inbounds i8, ptr %167, i64 %169
  store i8 0, ptr %170, align 1
  br label %171

171:                                              ; preds = %166, %158
  br label %172

172:                                              ; preds = %171, %153
  %173 = load i64, ptr %9, align 8
  store i64 %173, ptr %10, align 8
  br label %174

174:                                              ; preds = %172, %150, %131, %112, %91, %70, %46
  %175 = load i8, ptr %11, align 1
  %176 = trunc i8 %175 to i1
  %177 = xor i1 %176, true
  %178 = xor i1 %177, true
  %179 = zext i1 %178 to i32
  %180 = sext i32 %179 to i64
  %181 = icmp ne i64 %180, 0
  br i1 %181, label %182, label %184

182:                                              ; preds = %174
  %183 = call i32 @H5CX_pop(i1 noundef zeroext true)
  store i8 0, ptr %11, align 1
  br label %184

184:                                              ; preds = %182, %174
  %185 = load i8, ptr %12, align 1
  %186 = trunc i8 %185 to i1
  %187 = xor i1 %186, true
  %188 = xor i1 %187, true
  %189 = zext i1 %188 to i32
  %190 = sext i32 %189 to i64
  %191 = icmp ne i64 %190, 0
  br i1 %191, label %192, label %194

192:                                              ; preds = %184
  %193 = call i32 @H5E_dump_api_stack()
  br label %194

194:                                              ; preds = %192, %184
  %195 = load i64, ptr %10, align 8
  ret i64 %195
}