; Function Attrs: nounwind uwtable
define i64 @H5PLget(i32 noundef %0, ptr noundef %1, i64 noundef %2) local_unnamed_addr #0 {
  %4 = load i8, ptr @H5_libinit_g, align 1
  %5 = trunc i8 %4 to i1
  %6 = load i8, ptr @H5_libterm_g, align 1
  %7 = trunc i8 %6 to i1
  %8 = select i1 %5, i1 true, i1 %7
  br i1 %8, label %16, label %9

9:                                                ; preds = %3
  %10 = tail call i32 @H5_init_library() #4
  %11 = icmp slt i32 %10, 0
  br i1 %11, label %12, label %16

12:                                               ; preds = %9
  %13 = load i64, ptr @H5E_FUNC_g, align 8
  %14 = load i64, ptr @H5E_CANTINIT_g, align 8
  %15 = tail call i32 (ptr, ptr, i32, i64, i64, ptr, ...) @H5E_printf_stack(ptr noundef nonnull @.str, ptr noundef nonnull @__func__.H5PLget, i32 noundef 333, i64 noundef %13, i64 noundef %14, ptr noundef nonnull @.str.1) #4
  br label %.thread40

16:                                               ; preds = %9, %3
  %17 = tail call i32 @H5CX_push() #4
  %18 = icmp slt i32 %17, 0
  br i1 %18, label %19, label %23

19:                                               ; preds = %16
  %20 = load i64, ptr @H5E_FUNC_g, align 8
  %21 = load i64, ptr @H5E_CANTSET_g, align 8
  %22 = tail call i32 (ptr, ptr, i32, i64, i64, ptr, ...) @H5E_printf_stack(ptr noundef nonnull @.str, ptr noundef nonnull @__func__.H5PLget, i32 noundef 333, i64 noundef %20, i64 noundef %21, ptr noundef nonnull @.str.2) #4
  br label %.thread40

23:                                               ; preds = %16
  %24 = tail call i32 @H5E_clear_stack() #4
  %25 = tail call i32 @H5PL__get_num_paths() #4
  %26 = icmp eq i32 %25, 0
  br i1 %26, label %27, label %31

27:                                               ; preds = %23
  %28 = load i64, ptr @H5E_ARGS_g, align 8
  %29 = load i64, ptr @H5E_BADRANGE_g, align 8
  %30 = tail call i32 (ptr, ptr, i32, i64, i64, ptr, ...) @H5E_printf_stack(ptr noundef nonnull @.str, ptr noundef nonnull @__func__.H5PLget, i32 noundef 338, i64 noundef %28, i64 noundef %29, ptr noundef nonnull @.str.10) #4
  br label %.thread46

31:                                               ; preds = %23
  %.not = icmp ugt i32 %25, %0
  br i1 %.not, label %37, label %32

32:                                               ; preds = %31
  %33 = load i64, ptr @H5E_ARGS_g, align 8
  %34 = load i64, ptr @H5E_BADRANGE_g, align 8
  %35 = add i32 %25, -1
  %36 = tail call i32 (ptr, ptr, i32, i64, i64, ptr, ...) @H5E_printf_stack(ptr noundef nonnull @.str, ptr noundef nonnull @__func__.H5PLget, i32 noundef 341, i64 noundef %33, i64 noundef %34, ptr noundef nonnull @.str.11, i32 noundef %35) #4
  br label %.thread46

37:                                               ; preds = %31
  %38 = tail call i32 @H5PL__get_num_paths() #4
  %39 = icmp eq i32 %38, 0
  br i1 %39, label %40, label %44

40:                                               ; preds = %37
  %41 = load i64, ptr @H5E_PLUGIN_g, align 8
  %42 = load i64, ptr @H5E_NOSPACE_g, align 8
  %43 = tail call i32 (ptr, ptr, i32, i64, i64, ptr, ...) @H5E_printf_stack(ptr noundef nonnull @.str, ptr noundef nonnull @__func__.H5PLget, i32 noundef 345, i64 noundef %41, i64 noundef %42, ptr noundef nonnull @.str.15) #4
  br label %.thread46

44:                                               ; preds = %37
  %45 = tail call ptr @H5PL__get_path(i32 noundef %0) #4
  %46 = icmp eq ptr %45, null
  br i1 %46, label %47, label %51

47:                                               ; preds = %44
  %48 = load i64, ptr @H5E_PLUGIN_g, align 8
  %49 = load i64, ptr @H5E_BADVALUE_g, align 8
  %50 = tail call i32 (ptr, ptr, i32, i64, i64, ptr, ...) @H5E_printf_stack(ptr noundef nonnull @.str, ptr noundef nonnull @__func__.H5PLget, i32 noundef 349, i64 noundef %48, i64 noundef %49, ptr noundef nonnull @.str.16) #4
  br label %.thread46

51:                                               ; preds = %44
  %52 = tail call i64 @strlen(ptr noundef nonnull dereferenceable(1) %45) #5
  %.not30 = icmp eq ptr %1, null
  br i1 %.not30, label %59, label %53

53:                                               ; preds = %51
  %54 = tail call ptr @strncpy(ptr noundef nonnull %1, ptr noundef nonnull %45, i64 noundef %2) #4
  %.not31 = icmp ult i64 %52, %2
  br i1 %.not31, label %59, label %55

55:                                               ; preds = %53
  %56 = getelementptr i8, ptr %1, i64 %2
  %57 = getelementptr i8, ptr %56, i64 -1
  store i8 0, ptr %57, align 1
  br label %59

.thread46:                                        ; preds = %47, %40, %32, %27
  %58 = tail call i32 @H5CX_pop(i1 noundef zeroext true) #4
  br label %.thread40

59:                                               ; preds = %51, %55, %53
  %60 = tail call i32 @H5CX_pop(i1 noundef zeroext true) #4
  br label %62

.thread40:                                        ; preds = %19, %12, %.thread46
  %61 = tail call i32 @H5E_dump_api_stack() #4
  br label %62

62:                                               ; preds = %59, %.thread40
  %.0243543 = phi i64 [ -1, %.thread40 ], [ %52, %59 ]
  ret i64 %.0243543
}